target datalayout = "e-m:e-p270:32:32-p271:32:32-p272:64:64-i64:64-i128:128-f80:128-n8:16:32:64-S128"
target triple = "x86_64-pc-linux-gnu"

%"class.grpc_core::promise_detail::FreestandingActivity" = type { %"class.grpc_core::Activity", %"class.grpc_core::Wakeable", %"class.absl::lts_20240722::Mutex", %"struct.std::atomic.0", i8, ptr }
%"class.grpc_core::Activity" = type { %"class.grpc_core::Orphanable" }
%"class.grpc_core::Orphanable" = type { ptr }
%"class.grpc_core::Wakeable" = type { ptr }
%"class.absl::lts_20240722::Mutex" = type { %"struct.std::atomic" }
%"struct.std::atomic" = type { %"struct.std::__atomic_base" }
%"struct.std::__atomic_base" = type { i64 }
%"struct.std::atomic.0" = type { %"struct.std::__atomic_base.1" }
%"struct.std::__atomic_base.1" = type { i32 }
%"class.grpc_core::promise_detail::FreestandingActivity::Handle" = type { %"class.grpc_core::Wakeable", %"struct.std::atomic.2", %"class.absl::lts_20240722::Mutex", ptr }
%"struct.std::atomic.2" = type { %"struct.std::__atomic_base.3" }
%"struct.std::__atomic_base.3" = type { i64 }
%"class.grpc_core::Waker" = type { %"struct.grpc_core::Waker::WakeableAndArg" }
%"struct.grpc_core::Waker::WakeableAndArg" = type { ptr, i16 }

@_ZTVN9grpc_core8WakeableE = linkonce_odr unnamed_addr constant { [6 x ptr] } { [6 x ptr] [ptr null, ptr @_ZTIN9grpc_core8WakeableE, ptr @__cxa_pure_virtual, ptr @__cxa_pure_virtual, ptr @__cxa_pure_virtual, ptr @__cxa_pure_virtual] }, comdat, align 8

; Function Attrs: mustprogress nounwind uwtable
define linkonce_odr void @_ZNSt13__atomic_baseIlEC2El(ptr noundef nonnull align 8 dereferenceable(8) %0, i64 noundef %1) unnamed_addr #6 comdat align 2 {
  %3 = alloca ptr, align 8
  %4 = alloca i64, align 8
  store ptr %0, ptr %3, align 8, !tbaa !100
  store i64 %1, ptr %4, align 8, !tbaa !62
  %5 = load ptr, ptr %3, align 8
  %6 = getelementptr inbounds nuw %"struct.std::__atomic_base", ptr %5, i32 0, i32 0
  %7 = load i64, ptr %4, align 8, !tbaa !62
  store i64 %7, ptr %6, align 8, !tbaa !102
  ret void
}

; Function Attrs: mustprogress nounwind uwtable
define linkonce_odr void @_ZNSt6atomicIlEC2El(ptr noundef nonnull align 8 dereferenceable(8) %0, i64 noundef %1) unnamed_addr #6 comdat align 2 {
  %3 = alloca ptr, align 8
  %4 = alloca i64, align 8
  store ptr %0, ptr %3, align 8, !tbaa !98
  store i64 %1, ptr %4, align 8, !tbaa !62
  %5 = load ptr, ptr %3, align 8
  %6 = load i64, ptr %4, align 8, !tbaa !62
  call void @_ZNSt13__atomic_baseIlEC2El(ptr noundef nonnull align 8 dereferenceable(8) %5, i64 noundef %6) #3
  ret void
}

; Function Attrs: mustprogress nounwind uwtable
define linkonce_odr void @_ZNSt13__atomic_baseImEC2Em(ptr noundef nonnull align 8 dereferenceable(8) %0, i64 noundef %1) unnamed_addr #6 comdat align 2 {
  %3 = alloca ptr, align 8
  %4 = alloca i64, align 8
  store ptr %0, ptr %3, align 8, !tbaa !95
  store i64 %1, ptr %4, align 8, !tbaa !62
  %5 = load ptr, ptr %3, align 8
  %6 = getelementptr inbounds nuw %"struct.std::__atomic_base.3", ptr %5, i32 0, i32 0
  %7 = load i64, ptr %4, align 8, !tbaa !62
  store i64 %7, ptr %6, align 8, !tbaa !97
  ret void
}

; Function Attrs: alwaysinline mustprogress nounwind uwtable
define linkonce_odr noundef i64 @_ZNSt13__atomic_baseImE9fetch_addEmSt12memory_order(ptr noundef nonnull align 8 dereferenceable(8) %0, i64 noundef %1, i32 noundef %2) #10 comdat align 2 {
  %4 = alloca ptr, align 8
  %5 = alloca i64, align 8
  %6 = alloca i32, align 4
  %7 = alloca i64, align 8
  %8 = alloca i64, align 8
  store ptr %0, ptr %4, align 8, !tbaa !95
  store i64 %1, ptr %5, align 8, !tbaa !62
  store i32 %2, ptr %6, align 4, !tbaa !103
  %9 = load ptr, ptr %4, align 8
  %10 = getelementptr inbounds nuw %"struct.std::__atomic_base.3", ptr %9, i32 0, i32 0
  %11 = load i32, ptr %6, align 4, !tbaa !103
  %12 = load i64, ptr %5, align 8, !tbaa !62
  store i64 %12, ptr %7, align 8, !tbaa !62
  switch i32 %11, label %13 [
    i32 1, label %16
    i32 2, label %16
    i32 3, label %19
    i32 4, label %22
    i32 5, label %25
  ]

13:                                               ; preds = %3
  %14 = load i64, ptr %7, align 8
  %15 = atomicrmw add ptr %10, i64 %14 monotonic, align 8
  store i64 %15, ptr %8, align 8
  br label %28

16:                                               ; preds = %3, %3
  %17 = load i64, ptr %7, align 8
  %18 = atomicrmw add ptr %10, i64 %17 acquire, align 8
  store i64 %18, ptr %8, align 8
  br label %28

19:                                               ; preds = %3
  %20 = load i64, ptr %7, align 8
  %21 = atomicrmw add ptr %10, i64 %20 release, align 8
  store i64 %21, ptr %8, align 8
  br label %28

22:                                               ; preds = %3
  %23 = load i64, ptr %7, align 8
  %24 = atomicrmw add ptr %10, i64 %23 acq_rel, align 8
  store i64 %24, ptr %8, align 8
  br label %28

25:                                               ; preds = %3
  %26 = load i64, ptr %7, align 8
  %27 = atomicrmw add ptr %10, i64 %26 seq_cst, align 8
  store i64 %27, ptr %8, align 8
  br label %28

28:                                               ; preds = %25, %22, %19, %16, %13
  %29 = load i64, ptr %8, align 8, !tbaa !62
  ret i64 %29
}

; Function Attrs: inlinehint mustprogress nounwind uwtable
define linkonce_odr void @_ZN9grpc_core8WakeableD2Ev(ptr noundef nonnull align 8 dereferenceable(8) %0) unnamed_addr #7 comdat align 2 {
  %2 = alloca ptr, align 8
  store ptr %0, ptr %2, align 8, !tbaa !48
  ret void
}

; Function Attrs: inlinehint mustprogress nounwind uwtable
define linkonce_odr void @_ZN4absl12lts_202407225MutexC2Ev(ptr noundef nonnull align 8 dereferenceable(8) %0) unnamed_addr #7 comdat align 2 {
  %2 = alloca ptr, align 8
  store ptr %0, ptr %2, align 8, !tbaa !93
  %3 = load ptr, ptr %2, align 8
  %4 = getelementptr inbounds nuw %"class.absl::lts_20240722::Mutex", ptr %3, i32 0, i32 0
  call void @_ZNSt6atomicIlEC2El(ptr noundef nonnull align 8 dereferenceable(8) %4, i64 noundef 0) #3
  ret void
}

; Function Attrs: mustprogress nounwind uwtable
define linkonce_odr void @_ZNSt6atomicImEC2Em(ptr noundef nonnull align 8 dereferenceable(8) %0, i64 noundef %1) unnamed_addr #6 comdat align 2 {
  %3 = alloca ptr, align 8
  %4 = alloca i64, align 8
  store ptr %0, ptr %3, align 8, !tbaa !91
  store i64 %1, ptr %4, align 8, !tbaa !62
  %5 = load ptr, ptr %3, align 8
  %6 = load i64, ptr %4, align 8, !tbaa !62
  call void @_ZNSt13__atomic_baseImEC2Em(ptr noundef nonnull align 8 dereferenceable(8) %5, i64 noundef %6) #3
  ret void
}

; Function Attrs: inlinehint mustprogress nounwind uwtable
define linkonce_odr void @_ZN9grpc_core8WakeableC2Ev(ptr noundef nonnull align 8 dereferenceable(8) %0) unnamed_addr #7 comdat align 2 {
  %2 = alloca ptr, align 8
  store ptr %0, ptr %2, align 8, !tbaa !48
  %3 = load ptr, ptr %2, align 8
  store ptr getelementptr inbounds inrange(-16, 32) ({ [6 x ptr] }, ptr @_ZTVN9grpc_core8WakeableE, i32 0, i32 0, i32 2), ptr %3, align 8, !tbaa !38
  ret void
}

; Function Attrs: mustprogress nounwind uwtable
define linkonce_odr void @_ZN9grpc_core14promise_detail20FreestandingActivity6Handle3RefEv(ptr noundef nonnull align 8 dereferenceable(32) %0) #6 comdat align 2 {
  %2 = alloca ptr, align 8
  store ptr %0, ptr %2, align 8, !tbaa !37
  %3 = load ptr, ptr %2, align 8
  %4 = getelementptr inbounds nuw %"class.grpc_core::promise_detail::FreestandingActivity::Handle", ptr %3, i32 0, i32 1
  %5 = call noundef i64 @_ZNSt13__atomic_baseImE9fetch_addEmSt12memory_order(ptr noundef nonnull align 8 dereferenceable(8) %4, i64 noundef 1, i32 noundef 0) #3
  ret void
}

; Function Attrs: mustprogress uwtable
define linkonce_odr void @_ZN9grpc_core14promise_detail20FreestandingActivity6HandleC2EPS1_(ptr noundef nonnull align 8 dereferenceable(32) %0, ptr noundef %1) unnamed_addr #4 comdat align 2 personality ptr @__gxx_personality_v0 {
  %3 = alloca ptr, align 8
  %4 = alloca ptr, align 8
  %5 = alloca ptr, align 8
  %6 = alloca i32, align 4
  store ptr %0, ptr %3, align 8, !tbaa !37
  store ptr %1, ptr %4, align 8, !tbaa !16
  %7 = load ptr, ptr %3, align 8
  call void @_ZN9grpc_core8WakeableC2Ev(ptr noundef nonnull align 8 dereferenceable(8) %7) #3
  store ptr getelementptr inbounds inrange(-16, 32) ({ [6 x ptr] }, ptr @_ZTVN9grpc_core14promise_detail20FreestandingActivity6HandleE, i32 0, i32 0, i32 2), ptr %7, align 8, !tbaa !38
  %8 = getelementptr inbounds nuw %"class.grpc_core::promise_detail::FreestandingActivity::Handle", ptr %7, i32 0, i32 1
  call void @_ZNSt6atomicImEC2Em(ptr noundef nonnull align 8 dereferenceable(8) %8, i64 noundef 2) #3
  %9 = getelementptr inbounds nuw %"class.grpc_core::promise_detail::FreestandingActivity::Handle", ptr %7, i32 0, i32 2
  invoke void @_ZN4absl12lts_202407225MutexC2Ev(ptr noundef nonnull align 8 dereferenceable(8) %9)
          to label %10 unwind label %13

10:                                               ; preds = %2
  %11 = getelementptr inbounds nuw %"class.grpc_core::promise_detail::FreestandingActivity::Handle", ptr %7, i32 0, i32 3
  %12 = load ptr, ptr %4, align 8, !tbaa !16
  store ptr %12, ptr %11, align 8, !tbaa !40
  ret void

13:                                               ; preds = %2
  %14 = landingpad { ptr, i32 }
          cleanup
  %15 = extractvalue { ptr, i32 } %14, 0
  store ptr %15, ptr %5, align 8
  %16 = extractvalue { ptr, i32 } %14, 1
  store i32 %16, ptr %6, align 4
  call void @_ZN9grpc_core8WakeableD2Ev(ptr noundef nonnull align 8 dereferenceable(8) %7) #3
  br label %17

17:                                               ; preds = %13
  %18 = load ptr, ptr %5, align 8
  %19 = load i32, ptr %6, align 4
  %20 = insertvalue { ptr, i32 } poison, ptr %18, 0
  %21 = insertvalue { ptr, i32 } %20, i32 %19, 1
  resume { ptr, i32 } %21
}

; Function Attrs: mustprogress nounwind uwtable
define linkonce_odr void @_ZN9grpc_core5WakerC2EPNS_8WakeableEt(ptr noundef nonnull align 8 dereferenceable(16) %0, ptr noundef %1, i16 noundef zeroext %2) unnamed_addr #6 comdat align 2 {
  %4 = alloca ptr, align 8
  %5 = alloca ptr, align 8
  %6 = alloca i16, align 2
  store ptr %0, ptr %4, align 8, !tbaa !46
  store ptr %1, ptr %5, align 8, !tbaa !48
  store i16 %2, ptr %6, align 2, !tbaa !8
  %7 = load ptr, ptr %4, align 8
  %8 = getelementptr inbounds nuw %"class.grpc_core::Waker", ptr %7, i32 0, i32 0
  %9 = getelementptr inbounds nuw %"struct.grpc_core::Waker::WakeableAndArg", ptr %8, i32 0, i32 0
  %10 = load ptr, ptr %5, align 8, !tbaa !48
  store ptr %10, ptr %9, align 8, !tbaa !50
  %11 = getelementptr inbounds nuw %"struct.grpc_core::Waker::WakeableAndArg", ptr %8, i32 0, i32 1
  %12 = load i16, ptr %6, align 2, !tbaa !8
  store i16 %12, ptr %11, align 8, !tbaa !52
  ret void
}

; Function Attrs: mustprogress uwtable
define noundef ptr @_ZN9grpc_core14promise_detail20FreestandingActivity9RefHandleEv(ptr noundef nonnull align 8 dereferenceable(40) %0) #4 align 2 personality ptr @__gxx_personality_v0 {
  %2 = alloca ptr, align 8
  %3 = alloca ptr, align 8
  %4 = alloca ptr, align 8
  %5 = alloca i32, align 4
  store ptr %0, ptr %3, align 8, !tbaa !16
  %6 = load ptr, ptr %3, align 8
  %7 = getelementptr inbounds nuw %"class.grpc_core::promise_detail::FreestandingActivity", ptr %6, i32 0, i32 5
  %8 = load ptr, ptr %7, align 8, !tbaa !24
  %9 = icmp eq ptr %8, null
  br i1 %9, label %10, label %20

10:                                               ; preds = %1
  %11 = call noalias noundef nonnull ptr @_Znwm(i64 noundef 32) #23
  invoke void @_ZN9grpc_core14promise_detail20FreestandingActivity6HandleC2EPS1_(ptr noundef nonnull align 8 dereferenceable(32) %11, ptr noundef %6)
          to label %12 unwind label %16

12:                                               ; preds = %10
  %13 = getelementptr inbounds nuw %"class.grpc_core::promise_detail::FreestandingActivity", ptr %6, i32 0, i32 5
  store ptr %11, ptr %13, align 8, !tbaa !24
  %14 = getelementptr inbounds nuw %"class.grpc_core::promise_detail::FreestandingActivity", ptr %6, i32 0, i32 5
  %15 = load ptr, ptr %14, align 8, !tbaa !24
  store ptr %15, ptr %2, align 8
  br label %25

16:                                               ; preds = %10
  %17 = landingpad { ptr, i32 }
          cleanup
  %18 = extractvalue { ptr, i32 } %17, 0
  store ptr %18, ptr %4, align 8
  %19 = extractvalue { ptr, i32 } %17, 1
  store i32 %19, ptr %5, align 4
  call void @_ZdlPvm(ptr noundef %11, i64 noundef 32) #24
  br label %27

20:                                               ; preds = %1
  %21 = getelementptr inbounds nuw %"class.grpc_core::promise_detail::FreestandingActivity", ptr %6, i32 0, i32 5
  %22 = load ptr, ptr %21, align 8, !tbaa !24
  call void @_ZN9grpc_core14promise_detail20FreestandingActivity6Handle3RefEv(ptr noundef nonnull align 8 dereferenceable(32) %22)
  %23 = getelementptr inbounds nuw %"class.grpc_core::promise_detail::FreestandingActivity", ptr %6, i32 0, i32 5
  %24 = load ptr, ptr %23, align 8, !tbaa !24
  store ptr %24, ptr %2, align 8
  br label %25

25:                                               ; preds = %20, %12
  %26 = load ptr, ptr %2, align 8
  ret ptr %26

27:                                               ; preds = %16
  %28 = load ptr, ptr %4, align 8
  %29 = load i32, ptr %5, align 4
  %30 = insertvalue { ptr, i32 } poison, ptr %28, 0
  %31 = insertvalue { ptr, i32 } %30, i32 %29, 1
  resume { ptr, i32 } %31
}

; Function Attrs: mustprogress uwtable
define void @_ZN9grpc_core14promise_detail20FreestandingActivity18MakeNonOwningWakerEv(ptr dead_on_unwind noalias writable sret(%"class.grpc_core::Waker") align 8 %0, ptr noundef nonnull align 8 dereferenceable(40) %1) unnamed_addr #4 align 2 {
  %3 = alloca ptr, align 8
  %4 = alloca ptr, align 8
  store ptr %0, ptr %3, align 8
  store ptr %1, ptr %4, align 8, !tbaa !16
  %5 = load ptr, ptr %4, align 8
  %6 = getelementptr inbounds nuw %"class.grpc_core::promise_detail::FreestandingActivity", ptr %5, i32 0, i32 2
  call void @_ZNK4absl12lts_202407225Mutex10AssertHeldEv(ptr noundef nonnull align 8 dereferenceable(8) %6)
  %7 = call noundef ptr @_ZN9grpc_core14promise_detail20FreestandingActivity9RefHandleEv(ptr noundef nonnull align 8 dereferenceable(40) %5)
  call void @_ZN9grpc_core5WakerC2EPNS_8WakeableEt(ptr noundef nonnull align 8 dereferenceable(16) %0, ptr noundef %7, i16 noundef zeroext 0)
  ret void
}