; Function Attrs: mustprogress uwtable
define void @_ZN9grpc_core14promise_detail20FreestandingActivity18MakeNonOwningWakerEv(ptr dead_on_unwind noalias writable writeonly sret(%"class.grpc_core::Waker") align 8 captures(none) initializes((0, 10)) %0, ptr noundef nonnull align 8 dereferenceable(40) %1) unnamed_addr #6 align 2 personality ptr @__gxx_personality_v0 {
  %3 = getelementptr inbounds nuw i8, ptr %1, i64 16
  tail call void @_ZNK4absl12lts_202407225Mutex10AssertHeldEv(ptr noundef nonnull align 8 dereferenceable(8) %3)
  %4 = getelementptr inbounds nuw i8, ptr %1, i64 32
  %5 = load ptr, ptr %4, align 8, !tbaa !13
  %6 = icmp eq ptr %5, null
  br i1 %6, label %7, label %12

7:                                                ; preds = %2
  %8 = tail call noalias noundef nonnull dereferenceable(32) ptr @_Znwm(i64 noundef 32) #24
  store ptr getelementptr inbounds nuw inrange(-16, 32) (i8, ptr @_ZTVN9grpc_core14promise_detail20FreestandingActivity6HandleE, i64 16), ptr %8, align 8, !tbaa !26
  %9 = getelementptr inbounds nuw i8, ptr %8, i64 8
  store i64 2, ptr %9, align 8, !tbaa !28
  %10 = getelementptr inbounds nuw i8, ptr %8, i64 16
  store i64 0, ptr %10, align 8, !tbaa !30
  %11 = getelementptr inbounds nuw i8, ptr %8, i64 24
  store ptr %1, ptr %11, align 8, !tbaa !31
  store ptr %8, ptr %4, align 8, !tbaa !13
  br label %_ZN9grpc_core14promise_detail20FreestandingActivity9RefHandleEv.exit

12:                                               ; preds = %2
  %13 = getelementptr inbounds nuw i8, ptr %5, i64 8
  %14 = atomicrmw add ptr %13, i64 1 monotonic, align 8
  %15 = load ptr, ptr %4, align 8, !tbaa !13
  br label %_ZN9grpc_core14promise_detail20FreestandingActivity9RefHandleEv.exit

_ZN9grpc_core14promise_detail20FreestandingActivity9RefHandleEv.exit: ; preds = %7, %12
  %.0.i = phi ptr [ %8, %7 ], [ %15, %12 ]
  store ptr %.0.i, ptr %0, align 8, !tbaa !38
  %16 = getelementptr inbounds nuw i8, ptr %0, i64 8
  store i16 0, ptr %16, align 8, !tbaa !42
  ret void
}